; Function Attrs: cold nounwind optsize uwtable
define internal noundef i32 @flashsv2_decode_end(ptr noundef readonly captures(none) %0) #0 {
  %2 = getelementptr inbounds nuw i8, ptr %0, i64 32
  %3 = load ptr, ptr %2, align 8, !tbaa !4
  %4 = getelementptr inbounds nuw i8, ptr %3, i64 72
  tail call void @av_buffer_unref(ptr noundef nonnull %4) #7
  %5 = getelementptr inbounds nuw i8, ptr %3, i64 64
  store ptr null, ptr %5, align 8, !tbaa !52
  %6 = getelementptr inbounds nuw i8, ptr %3, i64 88
  tail call void @av_freep(ptr noundef nonnull %6) #7
  %7 = getelementptr inbounds nuw i8, ptr %3, i64 80
  tail call void @av_freep(ptr noundef nonnull %7) #7
  %8 = tail call i32 @flashsv_decode_end(ptr noundef %0) #8
  ret i32 0
}